target datalayout = "e-m:e-p270:32:32-p271:32:32-p272:64:64-i64:64-i128:128-f80:128-n8:16:32:64-S128"
target triple = "x86_64-unknown-linux-gnu"

%"class.llvh::SMLoc" = type { ptr }
%"class.hermes::irgen::ESTreeIRGen" = type { ptr, %"class.hermes::IRBuilder", %"class.hermes::IRInstrument", ptr, ptr, ptr, ptr, %"class.hermes::ScopedHashTable", %"class.std::shared_ptr", %"class.hermes::Identifier", %"class.hermes::Identifier", %"class.hermes::Identifier", ptr, ptr, %"class.llvh::DenseMap.9" }
%"class.hermes::IRBuilder" = type { ptr, %"class.llvh::ilist_iterator", ptr, %"class.llvh::SMLoc", ptr }
%"class.llvh::ilist_iterator" = type { ptr }
%"class.hermes::IRInstrument" = type { i8 }
%"class.hermes::ScopedHashTable" = type { %"class.llvh::DenseMap", ptr }
%"class.llvh::DenseMap" = type <{ ptr, i32, i32, i32, [4 x i8] }>
%"class.std::shared_ptr" = type { %"class.std::__shared_ptr" }
%"class.std::__shared_ptr" = type { ptr, %"class.std::__shared_count" }
%"class.std::__shared_count" = type { ptr }
%"class.hermes::Identifier" = type { ptr }
%"class.llvh::DenseMap.9" = type <{ ptr, i32, i32, i32, [4 x i8] }>

; Function Attrs: mustprogress nounwind uwtable
define hidden void @_ZN6hermes5irgen11ESTreeIRGen29blockDeclarationInstantiationEPNS_6ESTree4NodeE(ptr noundef nonnull align 8 dereferenceable(200) %this, ptr noundef %containingNode) #0 align 2 {
entry:
  %this.addr = alloca ptr, align 8
  %containingNode.addr = alloca ptr, align 8
  store ptr %this, ptr %this.addr, align 8
  store ptr %containingNode, ptr %containingNode.addr, align 8
  %this1 = load ptr, ptr %this.addr, align 8
  call void @_ZN6hermes5irgen11ESTreeIRGen25newDeclarativeEnvironmentEv(ptr noundef nonnull align 8 dereferenceable(200) %this1)
  %currentIRScopeDesc_ = getelementptr inbounds %"class.hermes::irgen::ESTreeIRGen", ptr %this1, i32 0, i32 12
  %0 = load ptr, ptr %currentIRScopeDesc_, align 8
  %1 = load ptr, ptr %containingNode.addr, align 8
  call void @_ZN6hermes5irgen11ESTreeIRGen19createScopeBindingsEPNS_9ScopeDescEPNS_6ESTree4NodeE(ptr noundef nonnull align 8 dereferenceable(200) %this1, ptr noundef %0, ptr noundef %1)
  %2 = load ptr, ptr %containingNode.addr, align 8
  call void @_ZN6hermes5irgen11ESTreeIRGen23genFunctionDeclarationsEPNS_6ESTree4NodeE(ptr noundef nonnull align 8 dereferenceable(200) %this1, ptr noundef %2)
  %3 = load ptr, ptr %containingNode.addr, align 8
  call void @_ZN6hermes5irgen11ESTreeIRGen20hoistCreateFunctionsEPNS_6ESTree4NodeE(ptr noundef nonnull align 8 dereferenceable(200) %this1, ptr noundef %3)
  ret void
}