; Function Attrs: mustprogress nounwind uwtable
define hidden void @_ZN6hermes5irgen11ESTreeIRGen29blockDeclarationInstantiationEPNS_6ESTree4NodeE(ptr noundef nonnull align 8 dereferenceable(200) %this, ptr noundef %containingNode) local_unnamed_addr #0 align 2 {
entry:
  tail call void @_ZN6hermes5irgen11ESTreeIRGen25newDeclarativeEnvironmentEv(ptr noundef nonnull align 8 dereferenceable(200) %this)
  %currentIRScopeDesc_ = getelementptr inbounds i8, ptr %this, i64 160
  %0 = load ptr, ptr %currentIRScopeDesc_, align 8
  tail call void @_ZN6hermes5irgen11ESTreeIRGen19createScopeBindingsEPNS_9ScopeDescEPNS_6ESTree4NodeE(ptr noundef nonnull align 8 dereferenceable(200) %this, ptr noundef %0, ptr noundef %containingNode) #15
  tail call void @_ZN6hermes5irgen11ESTreeIRGen23genFunctionDeclarationsEPNS_6ESTree4NodeE(ptr noundef nonnull align 8 dereferenceable(200) %this, ptr noundef %containingNode) #15
  tail call void @_ZN6hermes5irgen11ESTreeIRGen20hoistCreateFunctionsEPNS_6ESTree4NodeE(ptr noundef nonnull align 8 dereferenceable(200) %this, ptr noundef %containingNode) #15
  ret void
}